; ModuleID = 'bench/ffmpeg/original/nullenc.ll'
source_filename = "bench/ffmpeg/original/nullenc.ll"
target datalayout = "e-m:e-p270:32:32-p271:32:32-p272:64:64-i64:64-i128:128-f80:128-n8:16:32:64-S128"
target triple = "x86_64-pc-linux-gnu"

%struct.FFOutputFormat = type { %struct.AVOutputFormat, i32, i32, ptr, ptr, ptr, ptr, ptr, ptr, ptr, ptr, ptr, ptr, ptr, ptr }
%struct.AVOutputFormat = type { ptr, ptr, ptr, ptr, i32, i32, i32, i32, ptr, ptr }

@.str = private unnamed_addr constant [5 x i8] c"null\00", align 1
@.str.1 = private unnamed_addr constant [15 x i8] c"raw null video\00", align 1
@ff_null_muxer = local_unnamed_addr constant %struct.FFOutputFormat { %struct.AVOutputFormat { ptr @.str, ptr @.str.1, ptr null, ptr null, i32 65536, i32 135169, i32 0, i32 1153, ptr null, ptr null }, i32 0, i32 0, ptr null, ptr @null_write_packet, ptr null, ptr @ff_interleave_packet_passthrough, ptr null, ptr null, ptr null, ptr null, ptr null, ptr null, ptr null, ptr null }, align 8

; Function Attrs: mustprogress nofree norecurse nosync nounwind willreturn memory(none) uwtable
define internal noundef i32 @null_write_packet(ptr readnone captures(none) %0, ptr readnone captures(none) %1) #0 {
  ret i32 0
}

declare i32 @ff_interleave_packet_passthrough(ptr noundef, ptr noundef, i32 noundef, i32 noundef) #1


!llvm.module.flags = !{!0, !1, !2, !3}

!0 = !{i32 1, !"wchar_size", i32 4}
!1 = !{i32 8, !"PIC Level", i32 2}
!2 = !{i32 7, !"uwtable", i32 2}
!3 = !{i32 1, !"override-stack-alignment", i32 16}
